; Function Attrs: mustprogress nofree norecurse nosync nounwind willreturn memory(argmem: read) uwtable
define noundef i64 @_ZN11duckdb_zstd20ZSTD_ldm_getMaxNbSeqENS_11ldmParams_tEm(ptr noundef readonly byval(%"struct.duckdb_zstd::ldmParams_t") align 8 captures(none) %0, i64 noundef %1) local_unnamed_addr #1 {
  %3 = load i32, ptr %0, align 8, !tbaa !16
  %4 = icmp eq i32 %3, 1
  br i1 %4, label %5, label %10

5:                                                ; preds = %2
  %6 = getelementptr inbounds nuw i8, ptr %0, i64 12
  %7 = load i32, ptr %6, align 4, !tbaa !13
  %8 = zext i32 %7 to i64
  %9 = udiv i64 %1, %8
  br label %10

10:                                               ; preds = %2, %5
  %11 = phi i64 [ %9, %5 ], [ 0, %2 ]
  ret i64 %11
}